target datalayout = "e-m:e-p270:32:32-p271:32:32-p272:64:64-i64:64-i128:128-f80:128-n8:16:32:64-S128"
target triple = "x86_64-pc-linux-gnu"

@hf_h264_profile = internal global i32 0, align 4
@ett_h264_profile = internal global i32 0, align 4
@hf_h264_profile_idc = internal global i32 0, align 4
@hf_h264_constraint_set0_flag = internal global i32 0, align 4
@hf_h264_constraint_set1_flag = internal global i32 0, align 4
@hf_h264_constraint_set2_flag = internal global i32 0, align 4
@hf_h264_constraint_set3_flag = internal global i32 0, align 4
@hf_h264_constraint_set4_flag = internal global i32 0, align 4
@hf_h264_constraint_set5_flag = internal global i32 0, align 4
@hf_h264_reserved_zero_2bits = internal global i32 0, align 4
@hf_h264_level_idc = internal global i32 0, align 4
@.str = private unnamed_addr constant [22 x i8] c" [Level 1b (128kb/s)]\00", align 1
@.str.1 = private unnamed_addr constant [17 x i8] c" [Level %.1f %s]\00", align 1
@.str.2 = private unnamed_addr constant [9 x i8] c"Unknown \00", align 1

; Function Attrs: null_pointer_is_valid sspstrong uwtable
define hidden void @dissect_h264_profile(ptr noundef %0, ptr noundef %1, ptr noundef %2) #0 {
  %4 = alloca ptr, align 8
  %5 = alloca ptr, align 8
  %6 = alloca ptr, align 8
  %7 = alloca ptr, align 8
  %8 = alloca ptr, align 8
  %9 = alloca ptr, align 8
  %10 = alloca i32, align 4
  %11 = alloca i8, align 1
  %12 = alloca i32, align 4
  store ptr %0, ptr %4, align 8
  store ptr %1, ptr %5, align 8
  store ptr %2, ptr %6, align 8
  call void @llvm.lifetime.start.p0(i64 8, ptr %7) #7
  call void @llvm.lifetime.start.p0(i64 8, ptr %8) #7
  call void @llvm.lifetime.start.p0(i64 8, ptr %9) #7
  call void @llvm.lifetime.start.p0(i64 4, ptr %10) #7
  store i32 0, ptr %10, align 4
  call void @llvm.lifetime.start.p0(i64 1, ptr %11) #7
  call void @llvm.lifetime.start.p0(i64 4, ptr %12) #7
  %13 = load ptr, ptr %6, align 8
  %14 = load i32, ptr @hf_h264_profile, align 4
  %15 = load ptr, ptr %4, align 8
  %16 = load i32, ptr %10, align 4
  %17 = call ptr @proto_tree_add_item(ptr noundef %13, i32 noundef %14, ptr noundef %15, i32 noundef %16, i32 noundef -1, i32 noundef 0)
  store ptr %17, ptr %7, align 8
  %18 = load ptr, ptr %7, align 8
  %19 = load i32, ptr @ett_h264_profile, align 4
  %20 = call ptr @proto_item_add_subtree(ptr noundef %18, i32 noundef %19)
  store ptr %20, ptr %9, align 8
  %21 = load ptr, ptr %9, align 8
  %22 = load i32, ptr @hf_h264_profile_idc, align 4
  %23 = load ptr, ptr %4, align 8
  %24 = load i32, ptr %10, align 4
  %25 = call ptr @proto_tree_add_item(ptr noundef %21, i32 noundef %22, ptr noundef %23, i32 noundef %24, i32 noundef 1, i32 noundef 0)
  %26 = load i32, ptr %10, align 4
  %27 = add i32 %26, 1
  store i32 %27, ptr %10, align 4
  %28 = load ptr, ptr %4, align 8
  %29 = load i32, ptr %10, align 4
  %30 = call zeroext i8 @tvb_get_uint8(ptr noundef %28, i32 noundef %29)
  %31 = zext i8 %30 to i32
  %32 = and i32 %31, 16
  %33 = ashr i32 %32, 4
  %34 = trunc i32 %33 to i8
  store i8 %34, ptr %11, align 1
  %35 = load ptr, ptr %9, align 8
  %36 = load i32, ptr @hf_h264_constraint_set0_flag, align 4
  %37 = load ptr, ptr %4, align 8
  %38 = load i32, ptr %10, align 4
  %39 = call ptr @proto_tree_add_item(ptr noundef %35, i32 noundef %36, ptr noundef %37, i32 noundef %38, i32 noundef 1, i32 noundef 0)
  %40 = load ptr, ptr %9, align 8
  %41 = load i32, ptr @hf_h264_constraint_set1_flag, align 4
  %42 = load ptr, ptr %4, align 8
  %43 = load i32, ptr %10, align 4
  %44 = call ptr @proto_tree_add_item(ptr noundef %40, i32 noundef %41, ptr noundef %42, i32 noundef %43, i32 noundef 1, i32 noundef 0)
  %45 = load ptr, ptr %9, align 8
  %46 = load i32, ptr @hf_h264_constraint_set2_flag, align 4
  %47 = load ptr, ptr %4, align 8
  %48 = load i32, ptr %10, align 4
  %49 = call ptr @proto_tree_add_item(ptr noundef %45, i32 noundef %46, ptr noundef %47, i32 noundef %48, i32 noundef 1, i32 noundef 0)
  %50 = load ptr, ptr %9, align 8
  %51 = load i32, ptr @hf_h264_constraint_set3_flag, align 4
  %52 = load ptr, ptr %4, align 8
  %53 = load i32, ptr %10, align 4
  %54 = call ptr @proto_tree_add_item(ptr noundef %50, i32 noundef %51, ptr noundef %52, i32 noundef %53, i32 noundef 1, i32 noundef 0)
  %55 = load ptr, ptr %9, align 8
  %56 = load i32, ptr @hf_h264_constraint_set4_flag, align 4
  %57 = load ptr, ptr %4, align 8
  %58 = load i32, ptr %10, align 4
  %59 = call ptr @proto_tree_add_item(ptr noundef %55, i32 noundef %56, ptr noundef %57, i32 noundef %58, i32 noundef 1, i32 noundef 0)
  %60 = load ptr, ptr %9, align 8
  %61 = load i32, ptr @hf_h264_constraint_set5_flag, align 4
  %62 = load ptr, ptr %4, align 8
  %63 = load i32, ptr %10, align 4
  %64 = call ptr @proto_tree_add_item(ptr noundef %60, i32 noundef %61, ptr noundef %62, i32 noundef %63, i32 noundef 1, i32 noundef 0)
  %65 = load ptr, ptr %9, align 8
  %66 = load i32, ptr @hf_h264_reserved_zero_2bits, align 4
  %67 = load ptr, ptr %4, align 8
  %68 = load i32, ptr %10, align 4
  %69 = call ptr @proto_tree_add_item(ptr noundef %65, i32 noundef %66, ptr noundef %67, i32 noundef %68, i32 noundef 1, i32 noundef 0)
  %70 = load i32, ptr %10, align 4
  %71 = add i32 %70, 1
  store i32 %71, ptr %10, align 4
  %72 = load ptr, ptr %4, align 8
  %73 = load i32, ptr %10, align 4
  %74 = call zeroext i8 @tvb_get_uint8(ptr noundef %72, i32 noundef %73)
  %75 = zext i8 %74 to i32
  store i32 %75, ptr %12, align 4
  %76 = load ptr, ptr %9, align 8
  %77 = load i32, ptr @hf_h264_level_idc, align 4
  %78 = load ptr, ptr %4, align 8
  %79 = load i32, ptr %10, align 4
  %80 = call ptr @proto_tree_add_item(ptr noundef %76, i32 noundef %77, ptr noundef %78, i32 noundef %79, i32 noundef 1, i32 noundef 0)
  store ptr %80, ptr %8, align 8
  %81 = load i32, ptr %12, align 4
  %82 = icmp eq i32 %81, 11
  br i1 %82, label %83, label %89

83:                                               ; preds = %3
  %84 = load i8, ptr %11, align 1
  %85 = zext i8 %84 to i32
  %86 = icmp eq i32 %85, 1
  br i1 %86, label %87, label %89

87:                                               ; preds = %83
  %88 = load ptr, ptr %8, align 8
  call void (ptr, ptr, ...) @proto_item_append_text(ptr noundef %88, ptr noundef @.str)
  br label %96

89:                                               ; preds = %83, %3
  %90 = load ptr, ptr %8, align 8
  %91 = load i32, ptr %12, align 4
  %92 = uitofp i32 %91 to double
  %93 = fdiv double %92, 1.000000e+01
  %94 = load i32, ptr %12, align 4
  %95 = call ptr @val_to_str_const(i32 noundef %94, ptr noundef @h264_level_bitrate_values, ptr noundef @.str.2)
  call void (ptr, ptr, ...) @proto_item_append_text(ptr noundef %90, ptr noundef @.str.1, double noundef %93, ptr noundef %95)
  br label %96

96:                                               ; preds = %89, %87
  call void @llvm.lifetime.end.p0(i64 4, ptr %12) #7
  call void @llvm.lifetime.end.p0(i64 1, ptr %11) #7
  call void @llvm.lifetime.end.p0(i64 4, ptr %10) #7
  call void @llvm.lifetime.end.p0(i64 8, ptr %9) #7
  call void @llvm.lifetime.end.p0(i64 8, ptr %8) #7
  call void @llvm.lifetime.end.p0(i64 8, ptr %7) #7
  ret void
}