; Function Attrs: null_pointer_is_valid sspstrong uwtable
define hidden void @dissect_h264_profile(ptr noundef %0, ptr noundef readnone captures(none) %1, ptr noundef %2) local_unnamed_addr #0 {
  %4 = load i32, ptr @hf_h264_profile, align 4
  %5 = tail call ptr @proto_tree_add_item(ptr noundef %2, i32 noundef %4, ptr noundef %0, i32 noundef 0, i32 noundef -1, i32 noundef 0)
  %6 = load i32, ptr @ett_h264_profile, align 4
  %7 = tail call ptr @proto_item_add_subtree(ptr noundef %5, i32 noundef %6)
  %8 = load i32, ptr @hf_h264_profile_idc, align 4
  %9 = tail call ptr @proto_tree_add_item(ptr noundef %7, i32 noundef %8, ptr noundef %0, i32 noundef 0, i32 noundef 1, i32 noundef 0)
  %10 = tail call zeroext i8 @tvb_get_uint8(ptr noundef %0, i32 noundef 1)
  %11 = load i32, ptr @hf_h264_constraint_set0_flag, align 4
  %12 = tail call ptr @proto_tree_add_item(ptr noundef %7, i32 noundef %11, ptr noundef %0, i32 noundef 1, i32 noundef 1, i32 noundef 0)
  %13 = load i32, ptr @hf_h264_constraint_set1_flag, align 4
  %14 = tail call ptr @proto_tree_add_item(ptr noundef %7, i32 noundef %13, ptr noundef %0, i32 noundef 1, i32 noundef 1, i32 noundef 0)
  %15 = load i32, ptr @hf_h264_constraint_set2_flag, align 4
  %16 = tail call ptr @proto_tree_add_item(ptr noundef %7, i32 noundef %15, ptr noundef %0, i32 noundef 1, i32 noundef 1, i32 noundef 0)
  %17 = load i32, ptr @hf_h264_constraint_set3_flag, align 4
  %18 = tail call ptr @proto_tree_add_item(ptr noundef %7, i32 noundef %17, ptr noundef %0, i32 noundef 1, i32 noundef 1, i32 noundef 0)
  %19 = load i32, ptr @hf_h264_constraint_set4_flag, align 4
  %20 = tail call ptr @proto_tree_add_item(ptr noundef %7, i32 noundef %19, ptr noundef %0, i32 noundef 1, i32 noundef 1, i32 noundef 0)
  %21 = load i32, ptr @hf_h264_constraint_set5_flag, align 4
  %22 = tail call ptr @proto_tree_add_item(ptr noundef %7, i32 noundef %21, ptr noundef %0, i32 noundef 1, i32 noundef 1, i32 noundef 0)
  %23 = load i32, ptr @hf_h264_reserved_zero_2bits, align 4
  %24 = tail call ptr @proto_tree_add_item(ptr noundef %7, i32 noundef %23, ptr noundef %0, i32 noundef 1, i32 noundef 1, i32 noundef 0)
  %25 = tail call zeroext i8 @tvb_get_uint8(ptr noundef %0, i32 noundef 2)
  %26 = load i32, ptr @hf_h264_level_idc, align 4
  %27 = tail call ptr @proto_tree_add_item(ptr noundef %7, i32 noundef %26, ptr noundef %0, i32 noundef 2, i32 noundef 1, i32 noundef 0)
  %28 = icmp eq i8 %25, 11
  %29 = and i8 %10, 16
  %30 = icmp ne i8 %29, 0
  %or.cond = select i1 %28, i1 %30, i1 false
  br i1 %or.cond, label %31, label %32

31:                                               ; preds = %3
  tail call void (ptr, ptr, ...) @proto_item_append_text(ptr noundef %27, ptr noundef nonnull @.str)
  br label %37

32:                                               ; preds = %3
  %33 = zext i8 %25 to i32
  %34 = uitofp i8 %25 to double
  %35 = fdiv double %34, 1.000000e+01
  %36 = tail call ptr @val_to_str_const(i32 noundef %33, ptr noundef nonnull @h264_level_bitrate_values, ptr noundef nonnull @.str.2)
  tail call void (ptr, ptr, ...) @proto_item_append_text(ptr noundef %27, ptr noundef nonnull @.str.1, double noundef %35, ptr noundef %36)
  br label %37

37:                                               ; preds = %32, %31
  ret void
}